target datalayout = "e-m:e-p270:32:32-p271:32:32-p272:64:64-i64:64-i128:128-f80:128-n8:16:32:64-S128"
target triple = "x86_64-pc-linux-gnu"

%struct.ProgressBarStruct = type { i32, i32, i32, i32, ptr }

; Function Attrs: nounwind uwtable
define void @Extra_ProgressBarUpdate_int(ptr noundef %0, i32 noundef %1, ptr noundef %2) #0 {
  %4 = alloca ptr, align 8
  %5 = alloca i32, align 4
  %6 = alloca ptr, align 8
  store ptr %0, ptr %4, align 8, !tbaa !10
  store i32 %1, ptr %5, align 4, !tbaa !8
  store ptr %2, ptr %6, align 8, !tbaa !18
  %7 = load ptr, ptr %4, align 8, !tbaa !10
  %8 = icmp eq ptr %7, null
  br i1 %8, label %9, label %10

9:                                                ; preds = %3
  br label %54

10:                                               ; preds = %3
  %11 = load i32, ptr %5, align 4, !tbaa !8
  %12 = load ptr, ptr %4, align 8, !tbaa !10
  %13 = getelementptr inbounds nuw %struct.ProgressBarStruct, ptr %12, i32 0, i32 0
  %14 = load i32, ptr %13, align 8, !tbaa !17
  %15 = icmp slt i32 %11, %14
  br i1 %15, label %16, label %17

16:                                               ; preds = %10
  br label %54

17:                                               ; preds = %10
  %18 = load i32, ptr %5, align 4, !tbaa !8
  %19 = load ptr, ptr %4, align 8, !tbaa !10
  %20 = getelementptr inbounds nuw %struct.ProgressBarStruct, ptr %19, i32 0, i32 1
  %21 = load i32, ptr %20, align 4, !tbaa !14
  %22 = icmp sge i32 %18, %21
  br i1 %22, label %23, label %28

23:                                               ; preds = %17
  %24 = load ptr, ptr %4, align 8, !tbaa !10
  %25 = getelementptr inbounds nuw %struct.ProgressBarStruct, ptr %24, i32 0, i32 3
  store i32 78, ptr %25, align 4, !tbaa !16
  %26 = load ptr, ptr %4, align 8, !tbaa !10
  %27 = getelementptr inbounds nuw %struct.ProgressBarStruct, ptr %26, i32 0, i32 0
  store i32 2147483647, ptr %27, align 8, !tbaa !17
  br label %51

28:                                               ; preds = %17
  %29 = load ptr, ptr %4, align 8, !tbaa !10
  %30 = getelementptr inbounds nuw %struct.ProgressBarStruct, ptr %29, i32 0, i32 3
  %31 = load i32, ptr %30, align 4, !tbaa !16
  %32 = add nsw i32 %31, 7
  store i32 %32, ptr %30, align 4, !tbaa !16
  %33 = load ptr, ptr %4, align 8, !tbaa !10
  %34 = getelementptr inbounds nuw %struct.ProgressBarStruct, ptr %33, i32 0, i32 3
  %35 = load i32, ptr %34, align 4, !tbaa !16
  %36 = sitofp i32 %35 to double
  %37 = fadd double 7.000000e+00, %36
  %38 = load ptr, ptr %4, align 8, !tbaa !10
  %39 = getelementptr inbounds nuw %struct.ProgressBarStruct, ptr %38, i32 0, i32 1
  %40 = load i32, ptr %39, align 4, !tbaa !14
  %41 = sitofp i32 %40 to double
  %42 = fmul double %37, %41
  %43 = load ptr, ptr %4, align 8, !tbaa !10
  %44 = getelementptr inbounds nuw %struct.ProgressBarStruct, ptr %43, i32 0, i32 2
  %45 = load i32, ptr %44, align 8, !tbaa !15
  %46 = sitofp i32 %45 to double
  %47 = fdiv double %42, %46
  %48 = fptosi double %47 to i32
  %49 = load ptr, ptr %4, align 8, !tbaa !10
  %50 = getelementptr inbounds nuw %struct.ProgressBarStruct, ptr %49, i32 0, i32 0
  store i32 %48, ptr %50, align 8, !tbaa !17
  br label %51

51:                                               ; preds = %28, %23
  %52 = load ptr, ptr %4, align 8, !tbaa !10
  %53 = load ptr, ptr %6, align 8, !tbaa !18
  call void @Extra_ProgressBarShow(ptr noundef %52, ptr noundef %53)
  br label %54

54:                                               ; preds = %51, %16, %9
  ret void
}