; Function Attrs: nounwind uwtable
define void @Extra_ProgressBarUpdate_int(ptr noundef %0, i32 noundef %1, ptr noundef %2) local_unnamed_addr #0 {
  %4 = icmp eq ptr %0, null
  br i1 %4, label %26, label %5

5:                                                ; preds = %3
  %6 = load i32, ptr %0, align 8, !tbaa !13
  %7 = icmp slt i32 %1, %6
  br i1 %7, label %26, label %8

8:                                                ; preds = %5
  %9 = getelementptr inbounds nuw i8, ptr %0, i64 4
  %10 = load i32, ptr %9, align 4, !tbaa !10
  %.not = icmp slt i32 %1, %10
  %11 = getelementptr inbounds nuw i8, ptr %0, i64 12
  br i1 %.not, label %13, label %12

12:                                               ; preds = %8
  store i32 78, ptr %11, align 4, !tbaa !12
  br label %25

13:                                               ; preds = %8
  %14 = load i32, ptr %11, align 4, !tbaa !12
  %15 = add nsw i32 %14, 7
  store i32 %15, ptr %11, align 4, !tbaa !12
  %16 = sitofp i32 %15 to double
  %17 = fadd double %16, 7.000000e+00
  %18 = sitofp i32 %10 to double
  %19 = fmul double %17, %18
  %20 = getelementptr inbounds nuw i8, ptr %0, i64 8
  %21 = load i32, ptr %20, align 8, !tbaa !11
  %22 = sitofp i32 %21 to double
  %23 = fdiv double %19, %22
  %24 = fptosi double %23 to i32
  br label %25

25:                                               ; preds = %13, %12
  %storemerge = phi i32 [ %24, %13 ], [ 2147483647, %12 ]
  store i32 %storemerge, ptr %0, align 8, !tbaa !13
  tail call fastcc void @Extra_ProgressBarShow(ptr noundef nonnull %0, ptr noundef %2)
  br label %26

26:                                               ; preds = %5, %3, %25
  ret void
}